target datalayout = "e-m:e-p270:32:32-p271:32:32-p272:64:64-i64:64-i128:128-f80:128-n8:16:32:64-S128"
target triple = "x86_64-unknown-linux-gnu"

@.str.1 = private unnamed_addr constant [6 x i8] c"epoch\00", align 1
@.str.2 = private unnamed_addr constant [15 x i8] c"stats.resident\00", align 1
@.str.3 = private unnamed_addr constant [13 x i8] c"stats.active\00", align 1
@.str.4 = private unnamed_addr constant [16 x i8] c"stats.allocated\00", align 1

; Function Attrs: nounwind uwtable
define dso_local i32 @zmalloc_get_allocator_info(ptr noundef %allocated, ptr noundef %active, ptr noundef %resident) #0 {
entry:
  %allocated.addr = alloca ptr, align 8
  %active.addr = alloca ptr, align 8
  %resident.addr = alloca ptr, align 8
  %epoch = alloca i64, align 8
  %sz = alloca i64, align 8
  store ptr %allocated, ptr %allocated.addr, align 8
  store ptr %active, ptr %active.addr, align 8
  store ptr %resident, ptr %resident.addr, align 8
  store i64 1, ptr %epoch, align 8
  %0 = load ptr, ptr %active.addr, align 8
  store i64 0, ptr %0, align 8
  %1 = load ptr, ptr %resident.addr, align 8
  store i64 0, ptr %1, align 8
  %2 = load ptr, ptr %allocated.addr, align 8
  store i64 0, ptr %2, align 8
  store i64 8, ptr %sz, align 8
  %3 = load i64, ptr %sz, align 8
  %call = call i32 @je_mallctl(ptr noundef @.str.1, ptr noundef %epoch, ptr noundef %sz, ptr noundef %epoch, i64 noundef %3) #12
  store i64 8, ptr %sz, align 8
  %4 = load ptr, ptr %resident.addr, align 8
  %call1 = call i32 @je_mallctl(ptr noundef @.str.2, ptr noundef %4, ptr noundef %sz, ptr noundef null, i64 noundef 0) #12
  %5 = load ptr, ptr %active.addr, align 8
  %call2 = call i32 @je_mallctl(ptr noundef @.str.3, ptr noundef %5, ptr noundef %sz, ptr noundef null, i64 noundef 0) #12
  %6 = load ptr, ptr %allocated.addr, align 8
  %call3 = call i32 @je_mallctl(ptr noundef @.str.4, ptr noundef %6, ptr noundef %sz, ptr noundef null, i64 noundef 0) #12
  ret i32 1
}