; Function Attrs: nounwind uwtable
define dso_local noundef i32 @zmalloc_get_allocator_info(ptr noundef %allocated, ptr noundef %active, ptr noundef %resident) local_unnamed_addr #3 {
entry:
  %epoch = alloca i64, align 8
  %sz = alloca i64, align 8
  store i64 1, ptr %epoch, align 8
  store i64 0, ptr %active, align 8
  store i64 0, ptr %resident, align 8
  store i64 0, ptr %allocated, align 8
  store i64 8, ptr %sz, align 8
  %call = call i32 @je_mallctl(ptr noundef nonnull @.str.1, ptr noundef nonnull %epoch, ptr noundef nonnull %sz, ptr noundef nonnull %epoch, i64 noundef 8) #24
  store i64 8, ptr %sz, align 8
  %call1 = call i32 @je_mallctl(ptr noundef nonnull @.str.2, ptr noundef nonnull %resident, ptr noundef nonnull %sz, ptr noundef null, i64 noundef 0) #24
  %call2 = call i32 @je_mallctl(ptr noundef nonnull @.str.3, ptr noundef nonnull %active, ptr noundef nonnull %sz, ptr noundef null, i64 noundef 0) #24
  %call3 = call i32 @je_mallctl(ptr noundef nonnull @.str.4, ptr noundef nonnull %allocated, ptr noundef nonnull %sz, ptr noundef null, i64 noundef 0) #24
  ret i32 1
}